; Function Attrs: nounwind uwtable
define dso_local i64 @uuid_send(ptr noundef readonly captures(none) %0) local_unnamed_addr #0 {
  %2 = alloca %struct.StringInfoData, align 8
  %3 = getelementptr inbounds nuw i8, ptr %0, i64 32
  %4 = load i64, ptr %3, align 8
  %5 = inttoptr i64 %4 to ptr
  call void @llvm.lifetime.start.p0(i64 24, ptr nonnull %2) #15
  call void @pq_begintypsend(ptr noundef nonnull %2) #15
  call void @pq_sendbytes(ptr noundef nonnull %2, ptr noundef %5, i32 noundef 16) #15
  %6 = call ptr @pq_endtypsend(ptr noundef nonnull %2) #15
  %7 = ptrtoint ptr %6 to i64
  call void @llvm.lifetime.end.p0(i64 24, ptr nonnull %2) #15
  ret i64 %7
}